target datalayout = "e-m:e-p270:32:32-p271:32:32-p272:64:64-i64:64-i128:128-f80:128-n8:16:32:64-S128"
target triple = "x86_64-pc-linux-gnu"

%struct.ASN1_ENCODING_st = type { ptr, i64, i32 }
%struct.X509_algor_st = type { ptr, ptr }
%struct.CRYPTO_REF_COUNT = type { i32 }
%struct.X509_req_st = type { %struct.X509_req_info_st, %struct.X509_algor_st, ptr, %struct.CRYPTO_REF_COUNT, ptr, ptr, ptr, ptr }
%struct.X509_req_info_st = type { %struct.ASN1_ENCODING_st, ptr, ptr, ptr, ptr }

; Function Attrs: nounwind uwtable
define void @X509_REQ_get0_signature(ptr noundef %0, ptr noundef %1, ptr noundef %2) #0 {
  %4 = alloca ptr, align 8
  %5 = alloca ptr, align 8
  %6 = alloca ptr, align 8
  store ptr %0, ptr %4, align 8, !tbaa !42
  store ptr %1, ptr %5, align 8, !tbaa !72
  store ptr %2, ptr %6, align 8, !tbaa !74
  %7 = load ptr, ptr %5, align 8, !tbaa !72
  %8 = icmp ne ptr %7, null
  br i1 %8, label %9, label %14

9:                                                ; preds = %3
  %10 = load ptr, ptr %4, align 8, !tbaa !42
  %11 = getelementptr inbounds nuw %struct.X509_req_st, ptr %10, i32 0, i32 2
  %12 = load ptr, ptr %11, align 8, !tbaa !76
  %13 = load ptr, ptr %5, align 8, !tbaa !72
  store ptr %12, ptr %13, align 8, !tbaa !77
  br label %14

14:                                               ; preds = %9, %3
  %15 = load ptr, ptr %6, align 8, !tbaa !74
  %16 = icmp ne ptr %15, null
  br i1 %16, label %17, label %21

17:                                               ; preds = %14
  %18 = load ptr, ptr %4, align 8, !tbaa !42
  %19 = getelementptr inbounds nuw %struct.X509_req_st, ptr %18, i32 0, i32 1
  %20 = load ptr, ptr %6, align 8, !tbaa !74
  store ptr %19, ptr %20, align 8, !tbaa !78
  br label %21

21:                                               ; preds = %17, %14
  ret void
}